Microsoft (R) Macro Assembler Version 6.11		    07/08/19 20:13:57
tempfile.asm						     Page 1 - 1


 0000				DATAS SEGMENT
 0000				    namepar   label    byte
 0000 15				maxnlen   db     21
 0001 00				actnlen   db     ?
 0002  0015 [				_name     db     21 dup(?)  
        00
       ]

 0017					phonepar  label    byte
 0017 09				maxplen   db     9
 0018 00				actplen   db     ?
 0019  0009 [				_phone    db     9 dup(?)
        00
       ]

 0022 0D 0A 24				crlf      db     13,10,'$'

 0025 0000				endaddr   dw     ?

 0027 49 6E 70 75 74 20			string1   db     'Input name:','$'
       6E 61 6D 65 3A 24
 0033 49 6E 70 75 74 20			string2   db     'Input a telephone number:','$'
       61 20 74 65 6C 65
       70 68 6F 6E 65 20
       6E 75 6D 62 65 72
       3A 24
 004D 44 6F 20 79 6F 75			string3   db     'Do you want a telephone number?(Y/N)','$'
       20 77 61 6E 74 20
       61 20 74 65 6C 65
       70 68 6F 6E 65 20
       6E 75 6D 62 65 72
       3F 28 59 2F 4E 29
       24
 0072 6E 61 6D 65 3F 24			string4   db     'name?','$'
 0078 6E 61 6D 65			string5   db     'name',16 dup(' '),'tel',0dh,0ah,'$'
       0010 [
        20
       ] 74 65 6C 0D 0A
       24
 0092 4E 6F 74 20 69 6E			string6   db     'Not in the table.',0dh,0ah,'$'
       20 74 68 65 20 74
       61 62 6C 65 2E 0D
       0A 24
 00A6 49 6E 76 61 6C 69			string7   db     'Invalid input!',0dh,0ah,'$'
       64 20 69 6E 70 75
       74 21 0D 0A 24
					
 00B7 00				count     db     0
 00B8  0032 [				tel_tab   db     50 dup(20 dup(' '),8 dup(' '))
        0014 [
	 20
	]
        0008 [
	 20
	]
       ]
 0630  0014 [				temp      db     20 dup(' '),8 dup(' '),0dh,0ah,'$'
        20
       ]
       0008 [
        20
       ] 0D 0A 24
 064F 00				swapped   db     0

 0650				DATAS ENDS

 0000				STACKS SEGMENT
				    ;Ê≠§Â§ÑËæìÂÖ•Â†ÜÊ†àÊÆµ‰ª£Á†?
 0000				STACKS ENDS

 0000				CODES SEGMENT
				    ASSUME CS:CODES,DS:DATAS,SS:STACKS,ES:DATAS
 0000				START:
 0000  B8 ---- R		      MOV AX,DATAS
 0003  8E D8			      MOV DS,AX
 0005  8E C0			      mov     es,ax
 0007  8D 3E 00B8 R		      lea     di,tel_tab      ;di‰∏≠Â≠òÊîæË°®È¶ñÂú∞ÂùÄ
				      
 000B				inputloop:
				      
 000B  8D 16 0027 R		      lea     dx,string1
 000F  B4 09			      mov     ah,09h
 0011  CD 21			      int     21h          ;'Input name'
				      
 0013  E8 0080			      call    input_name
 0016  80 3E 0001 R 00		      cmp     actnlen,0    ;Ê≤°ÊúâËæìÂÖ•‰∫∫ÂêçÊó?
 001B  74 17			      jz      a            ;Áõ¥Êé•Ë∑≥Âà∞ÊèêÁ§∫ÊòØÂê¶Êü•ÊâæÁöÑÂú∞Êñ?
 001D  80 3E 00B7 R 32		      cmp     count,50     ;ËæìÂÖ•‰∏äÈôê
 0022  74 10			      je      a  
 0024  E8 0091			      call    store_name    ;‰øùÂ≠ò‰∫∫ÂêçÂà∞tel_tab
				                      
 0027  B4 09			      mov     ah,09h       ;'Input a telephone number'
 0029  8D 16 0033 R		      lea     dx,string2
 002D  CD 21			      int     21h      
 002F  E8 0095			      call    input_store_phone ;ËæìÂÖ•Âπ∂‰øùÂ≠òÁîµËØùÂè∑Á†?
 0032  EB D7			      jmp     inputloop

 0034				a:
 0034  80 3E 00B7 R 01		      cmp     count,1
 0039  76 06			      jbe     sloop ;Â¶ÇÊûúÊ≤°ÊúâËæìÂÖ•ÊàñËÄÖËæìÂÖ•‰∏Ä‰∏?
 003B  E8 00B5			      call    name_sort  ;ÊéíÂ∫è
 003E  E8 0106			      call    disp_all  ;ÊòæÁ§∫ÊâÄÊú?

 0041				sloop:
 0041  8D 16 004D R		      lea     dx,string3
 0045  B4 09			      mov     ah,09h
 0047  CD 21			      int     21h 
				      
 0049  B4 01			      mov     ah,01h
 004B  CD 21			      int     21h      
				      
 004D  3C 4E			      cmp     al,'N'
 004F  74 41			      je      exit
 0051  3C 6E			      cmp     al,'n'
 0053  74 3D			      je      exit
 0055  3C 59			      cmp     al,'Y'
 0057  74 16			      je      sname
 0059  3C 79			      cmp     al,'y'
 005B  74 12			      je      sname
				      
 005D  B4 09			      mov     ah,09
 005F  8D 16 0022 R		      lea     dx,crlf
 0063  CD 21			      int     21h 
 0065  8D 16 00A6 R		      lea     dx,string7 ;ÈùûÊ≥ïËæìÂÖ•
 0069  B4 09			      mov     ah,09h
 006B  CD 21			      int     21h      
				      
 006D  EB D2			      jmp     sloop
				      
 006F				sname:      
 006F  B4 09			      mov     ah,09
 0071  8D 16 0022 R		      lea     dx,crlf
 0075  CD 21			      int     21h      
				        
 0077  8D 16 0072 R		      lea     dx,string4 ;ÂΩìËæìÂÖ•YÊó?ÊòæÁ§∫'name?'
 007B  B4 09			      mov     ah,09
 007D  CD 21			      int     21h 
				      
 007F  E8 0014			      call    input_name ;ËæìÂÖ•Ë¶ÅÊü•ÊâæÁöÑ‰∫∫Âêç
 0082  B4 09			      mov     ah,09h
 0084  8D 16 0078 R		      lea     dx,string5
 0088  CD 21			      int     21h
 008A  E8 00DE			      call    name_search ;Êü•Êâæ
 008D  E8 0113			      call    sprint
 0090  EB AF			      jmp     sloop     
 0092				exit:
 0092  B4 4C			      MOV AH,4CH
 0094  CD 21			      INT 21H 


 0096				input_name    proc    near      
 0096  B4 0A			      mov     ah,0ah
 0098  8D 16 0000 R		      lea     dx,namepar
 009C  CD 21			      int     21h
 009E  B4 02			      mov     ah,02h
 00A0  B2 0A			      mov     dl,0ah ;Êç¢Ë°å
 00A2  CD 21			      int     21h
				      
 00A4  B7 00			      mov     bh,0
 00A6  8A 1E 0001 R		      mov     bl,actnlen
 00AA  B9 0015			      mov     cx,21
 00AD  2B CB			      sub     cx,bx
 00AF				n:
 00AF  C6 87 0002 R 20		      mov     _name[bx],20h
 00B4  43			      inc     bx
 00B5  E2 F8			      loop    n
 00B7  C3			      ret
 00B8				input_name endp            


 00B8				store_name  proc    near
 00B8  FE 06 00B7 R		      inc     count
 00BC  FC			      cld     
 00BD  8D 36 0002 R		      lea     si,_name
 00C1  B9 0014			      mov     cx,20        ;Êääname‰∏≠ÁöÑÂâ?0‰∏™Â≠óÁ¨¶ÊîæÂÖ•tel_tab‰∏≠ÊØè‰∏Ä‰∏™‰∫∫‰ø°ÊÅØÁöÑÂâç20‰∏™byte‰∏?
 00C4  F3/ A4			      rep     movsb
 00C6  C3			      ret
 00C7				store_name  endp   

				                  
 00C7				input_store_phone  proc  near
				      
 00C7  B4 0A			      mov     ah,0ah
 00C9  8D 16 0017 R		      lea     dx,phonepar
 00CD  CD 21			      int     21h      
 00CF  B4 02			      mov     ah,02h
 00D1  B2 0A			      mov     dl,0ah ;Êç¢Ë°å
 00D3  CD 21			      int     21h
				      
 00D5  B7 00			      mov     bh,0
 00D7  8A 1E 0018 R		      mov     bl,actplen
 00DB  B9 0009			      mov     cx,9
 00DE  2B CB			      sub     cx,bx ;ËÆ°ÁÆóÂâ©‰∏ãÁöÑÈïøÂ∫?

 00E0				s:
 00E0  C6 87 0019 R 20		      mov     _phone[bx],20h ;Ââ©‰∏ãÁöÑÂú∞ÊñπÂ°´ÂÖÖÁ©∫Ê†?
 00E5  43			      inc     bx
 00E6  E2 F8			      loop    s
				         
 00E8  FC			      cld     
 00E9  8D 36 0019 R		      lea     si,_phone
 00ED  B9 0008			      mov     cx,8      ;Êääphone‰∏≠ÁöÑÂâ?‰∏™Â≠óÁ¨¶ÊîæÂÖ•tel_tab‰∏≠ÊØè‰∏Ä‰∏™‰∫∫‰ø°ÊÅØÁöÑÂêé8‰∏™byte‰∏?
 00F0  F3/ A4			      rep     movsb    
 00F2  C3			      ret
 00F3				input_store_phone endp         


 00F3				name_sort  proc    near
 00F3  83 EF 38			      sub     di,56    
 00F6  89 3E 0025 R		      mov     endaddr,di
 00FA				n1:
 00FA  C6 06 064F R 00		      mov     swapped,0
 00FF  8D 36 00B8 R		      lea     si,tel_tab
 0103				n2:
 0103  B9 0014			      mov     cx,20
 0106  8B FE			      mov     di,si
 0108  83 C7 1C			      add     di,28 ;‰∏ã‰∏Ä‰∏™Ë¢´ÊØîËæÉÁöÑÂêçÂ≠?
 010B  8B C7			      mov     ax,di
 010D  8B DE			      mov     bx,si
 010F  F3/ A6			      repe    cmpsb
 0111  76 03			      jbe     n3 ;Â∞è‰∫éÊàñÁ≠â‰∫é‰∏çÁî®‰∫§Êç?
 0113  E8 0010			      call    exchange
 0116				n3:
 0116  8B F0			      mov     si,ax
 0118  3B 36 0025 R		      cmp     si,endaddr
 011C  76 E5			      jbe     n2
 011E  80 3E 064F R 00		      cmp     swapped,0
 0123  75 D5			      jnz     n1
 0125  C3			      ret      
				                  
 0126				name_sort  endp


 0126				exchange   proc    near
 0126  B9 000E			      mov     cx,14
 0129  8D 3E 0630 R		      lea     di,temp
 012D  8B F3			      mov     si,bx
 012F  F3/ A5			      rep     movsw             ;move lower item to save
				      
 0131  B9 000E			      mov     cx,14
 0134  8B FB			      mov     di,bx
 0136  F3/ A5			      rep     movsw
				      
 0138  B9 000E			      mov     cx,14
 013B  8D 36 0630 R		      lea     si,temp
 013F  F3/ A5			      rep     movsw
 0141  C6 06 064F R 01		      mov     swapped,1
 0146  C3			      ret
				       
 0147				exchange   endp


 0147				disp_all  proc    near
 0147  B4 09			      mov     ah,09h
 0149  8D 16 0078 R		      lea     dx,string5
 014D  CD 21			      int     21h
 014F  8D 36 00B8 R		      lea     si,tel_tab
 0153				n1:
 0153  8D 3E 0630 R		      lea     di,temp
 0157  B9 000E			      mov     cx,14
 015A  F3/ A5			      rep     movsw
 015C  B4 09			      mov     ah,09h
 015E  8D 16 0630 R		      lea     dx,temp
 0162  CD 21			      int     21h
 0164  FE 0E 00B7 R		      dec     count
 0168  75 E9			      jnz     n1
 016A  C3			      ret     
				      
 016B				disp_all  endp     


 016B				name_search proc    near            
 016B  8D 36 00B8 R		      lea     si,tel_tab
 016F  8B DE			      mov     bx,si
 0171  83 06 0025 R 1C		      add     endaddr,28
 0176				n1:           
 0176  8D 3E 0002 R		      lea     di,_name     ;Â≠òÊîæÂæÖÊü•ÊâæÁöÑ‰∫∫ÂêçÂú∞ÂùÄ
 017A  B9 000A			      mov     cx,10
 017D  F3/ A7			      repe    cmpsw
 017F  E3 11			      jcxz    nase_exit    ;Áõ∏Á≠â
 0181				n2:      
 0181  83 C3 1C			      add     bx,28        ;Ë°®‰∏≠‰∏ã‰∏Ä‰∏™ÊØîËæÉÁöÑ‰∫∫Âêç
 0184  8B F3			      mov     si,bx
 0186  3B 36 0025 R		      cmp     si,endaddr
 018A  76 EA			      jbe     n1
 018C  77 00			      ja      notintab
 018E				notintab: 
 018E  B9 FFFF			      mov     cx,-1
 0191  C3			      ret
 0192				nase_exit: 
 0192  8B F3			      mov     si,bx
 0194  8D 3E 0630 R		      lea     di,temp
 0198  B9 000E			      mov     cx,14
 019B  F3/ A5			      rep     movsw
 019D  E8 0003			      call    sprint
 01A0  EB DF			      jmp     n2
 01A2  C3			      ret                  
 01A3				name_search endp  


 01A3				sprint  proc    near
 01A3  83 F9 FF			      cmp     cx,-1
 01A6  74 09			      je      n
				      
 01A8  B4 09			      mov     ah,09h
 01AA  8D 16 0630 R		      lea     dx,temp     
 01AE  CD 21			      int     21h
 01B0  C3			      ret
 01B1				n:
 01B1  B4 09			      mov     ah,09h
 01B3  8D 16 0092 R		      lea     dx,string6
 01B7  CD 21			      int     21h           
 01B9  C3			      ret
 01BA				sprint  endp  
				              
 01BA				CODES ENDS
				    END START

Microsoft (R) Macro Assembler Version 6.11		    07/08/19 20:13:57
tempfile.asm						     Symbols 2 - 1




Segments and Groups:

                N a m e                 Size     Length   Align   Combine Class

CODES  . . . . . . . . . . . . .	16 Bit	 01BA	  Para	  Private 
DATAS  . . . . . . . . . . . . .	16 Bit	 0650	  Para	  Private 
STACKS . . . . . . . . . . . . .	16 Bit	 0000	  Para	  Private 


Procedures,  parameters and locals:

                N a m e                 Type     Value    Attr

disp_all . . . . . . . . . . . .	P Near	 0147	  CODES	Length= 0024 Public
  n1 . . . . . . . . . . . . . .	L Near	 0153	  CODES	
exchange . . . . . . . . . . . .	P Near	 0126	  CODES	Length= 0021 Public
input_name . . . . . . . . . . .	P Near	 0096	  CODES	Length= 0022 Public
  n  . . . . . . . . . . . . . .	L Near	 00AF	  CODES	
input_store_phone  . . . . . . .	P Near	 00C7	  CODES	Length= 002C Public
  s  . . . . . . . . . . . . . .	L Near	 00E0	  CODES	
name_search  . . . . . . . . . .	P Near	 016B	  CODES	Length= 0038 Public
  n1 . . . . . . . . . . . . . .	L Near	 0176	  CODES	
  n2 . . . . . . . . . . . . . .	L Near	 0181	  CODES	
  notintab . . . . . . . . . . .	L Near	 018E	  CODES	
  nase_exit  . . . . . . . . . .	L Near	 0192	  CODES	
name_sort  . . . . . . . . . . .	P Near	 00F3	  CODES	Length= 0033 Public
  n1 . . . . . . . . . . . . . .	L Near	 00FA	  CODES	
  n2 . . . . . . . . . . . . . .	L Near	 0103	  CODES	
  n3 . . . . . . . . . . . . . .	L Near	 0116	  CODES	
sprint . . . . . . . . . . . . .	P Near	 01A3	  CODES	Length= 0017 Public
  n  . . . . . . . . . . . . . .	L Near	 01B1	  CODES	
store_name . . . . . . . . . . .	P Near	 00B8	  CODES	Length= 000F Public


Symbols:

                N a m e                 Type     Value    Attr

START  . . . . . . . . . . . . .	L Near	 0000	  CODES	
_name  . . . . . . . . . . . . .	Byte	 0002	  DATAS	
_phone . . . . . . . . . . . . .	Byte	 0019	  DATAS	
actnlen  . . . . . . . . . . . .	Byte	 0001	  DATAS	
actplen  . . . . . . . . . . . .	Byte	 0018	  DATAS	
a  . . . . . . . . . . . . . . .	L Near	 0034	  CODES	
count  . . . . . . . . . . . . .	Byte	 00B7	  DATAS	
crlf . . . . . . . . . . . . . .	Byte	 0022	  DATAS	
endaddr  . . . . . . . . . . . .	Word	 0025	  DATAS	
exit . . . . . . . . . . . . . .	L Near	 0092	  CODES	
inputloop  . . . . . . . . . . .	L Near	 000B	  CODES	
maxnlen  . . . . . . . . . . . .	Byte	 0000	  DATAS	
maxplen  . . . . . . . . . . . .	Byte	 0017	  DATAS	
namepar  . . . . . . . . . . . .	Byte	 0000	  DATAS	
phonepar . . . . . . . . . . . .	Byte	 0017	  DATAS	
sloop  . . . . . . . . . . . . .	L Near	 0041	  CODES	
sname  . . . . . . . . . . . . .	L Near	 006F	  CODES	
string1  . . . . . . . . . . . .	Byte	 0027	  DATAS	
string2  . . . . . . . . . . . .	Byte	 0033	  DATAS	
string3  . . . . . . . . . . . .	Byte	 004D	  DATAS	
string4  . . . . . . . . . . . .	Byte	 0072	  DATAS	
string5  . . . . . . . . . . . .	Byte	 0078	  DATAS	
string6  . . . . . . . . . . . .	Byte	 0092	  DATAS	
string7  . . . . . . . . . . . .	Byte	 00A6	  DATAS	
swapped  . . . . . . . . . . . .	Byte	 064F	  DATAS	
tel_tab  . . . . . . . . . . . .	Byte	 00B8	  DATAS	
temp . . . . . . . . . . . . . .	Byte	 0630	  DATAS	

	   0 Warnings
	   0 Errors
